; Function Attrs: nounwind sspstrong uwtable
define internal noundef i64 @ossl_sslctx_set_security_level(i64 noundef %0, i64 noundef returned %1) #0 {
  %3 = icmp eq i64 %0, 0
  %4 = and i64 %0, 7
  %5 = icmp ne i64 %4, 0
  %6 = or i1 %3, %5
  br i1 %6, label %RB_OBJ_FROZEN.exit.thread.i, label %RB_FL_ABLE.exit.i.i, !prof !17

RB_FL_ABLE.exit.i.i:                              ; preds = %2
  %7 = inttoptr i64 %0 to ptr
  %8 = load i64, ptr %7, align 8, !tbaa !18
  %9 = and i64 %8, 31
  %.not.i.i = icmp eq i64 %9, 27
  %10 = and i64 %8, 2048
  %11 = icmp ne i64 %10, 0
  %or.cond.i = or i1 %.not.i.i, %11
  br i1 %or.cond.i, label %RB_OBJ_FROZEN.exit.thread.i, label %rbimpl_RB_TYPE_P_fastpath.exit.i, !prof !19

RB_OBJ_FROZEN.exit.thread.i:                      ; preds = %RB_FL_ABLE.exit.i.i, %2
  tail call void @rb_error_frozen_object(i64 noundef %0) #10
  unreachable

rbimpl_RB_TYPE_P_fastpath.exit.i:                 ; preds = %RB_FL_ABLE.exit.i.i
  %12 = icmp ne i64 %9, 5
  %13 = and i64 %8, 49152
  %.not.i = icmp eq i64 %13, 0
  %or.cond8.i = or i1 %12, %.not.i
  br i1 %or.cond8.i, label %rb_check_frozen_inline.exit, label %14, !prof !20

14:                                               ; preds = %rbimpl_RB_TYPE_P_fastpath.exit.i
  tail call void @rb_str_modify(i64 noundef %0) #9
  br label %rb_check_frozen_inline.exit

rb_check_frozen_inline.exit:                      ; preds = %rbimpl_RB_TYPE_P_fastpath.exit.i, %14
  %15 = tail call ptr @rb_check_typeddata(i64 noundef %0, ptr noundef nonnull @ossl_sslctx_type) #9
  %16 = and i64 %1, 1
  %.not.i4 = icmp eq i64 %16, 0
  br i1 %.not.i4, label %19, label %17

17:                                               ; preds = %rb_check_frozen_inline.exit
  %18 = tail call i64 @rb_fix2int(i64 noundef %1) #9
  br label %rb_num2int_inline.exit

19:                                               ; preds = %rb_check_frozen_inline.exit
  %20 = tail call i64 @rb_num2int(i64 noundef %1) #9
  br label %rb_num2int_inline.exit

rb_num2int_inline.exit:                           ; preds = %17, %19
  %.0.i = phi i64 [ %18, %17 ], [ %20, %19 ]
  %21 = trunc i64 %.0.i to i32
  tail call void @SSL_CTX_set_security_level(ptr noundef %15, i32 noundef %21) #9
  ret i64 %1
}